ccopy_reg
_reconstructor
p0
(c__main__
Caffe_Quantizer
p1
c__builtin__
object
p2
Ntp3
Rp4
(dp5
S'layer_type'
p6
(dp7
S'loss'
p8
S'softmaxwithloss'
p9
sS'relu1'
p10
S'relu'
p11
sS'ip2'
p12
S'innerproduct'
p13
sS'conv2'
p14
S'convolution'
p15
sS'conv1'
p16
S'convolution'
p17
sS'ip1'
p18
S'innerproduct'
p19
sS'pool2'
p20
S'pooling'
p21
sS'pool1'
p22
S'pooling'
p23
sS'data'
p24
S'data'
p25
sS'accuracy'
p26
S'accuracy'
p27
ssS'weight_file'
p28
S'..\\Model\\lenet_iter_10000.caffemodel'
p29
sS'act_dec_bits'
p30
(dp31
S'ip2'
p32
I1
sS'conv2'
p33
I2
sS'conv1'
p34
I5
sS'ip1'
p35
I3
sS'data'
p36
I7
sS'accuracy'
p37
I7
ssS'label_layer'
p38
S'label'
p39
sS'conv_layer'
p40
(lp41
S'conv1'
p42
aS'conv2'
p43
asS'end_layer'
p44
(lp45
g36
ag34
ag33
ag35
ag32
ag37
asS'lrn_beta'
p46
(dp47
sS'layer'
p48
(lp49
g36
ag34
aS'pool1'
p50
ag33
aS'pool2'
p51
ag35
aS'relu1'
p52
ag32
ag37
asS'iterations'
p53
I100
sS'bias_lshift'
p54
(dp55
S'ip2'
p56
I0
sg43
I4
sg42
I6
sS'ip1'
p57
I0
ssS'lrn_type'
p58
(dp59
sS'act_int_bits'
p60
(dp61
g32
I6
sg33
I5
sg34
I2
sg35
I4
sg36
I0
sg37
I0
ssS'group'
p62
(dp63
S'conv2'
p64
I1
sS'conv1'
p65
I1
ssS'bottom_blob'
p66
(dp67
S'loss'
p68
(lp69
S'ip2'
p70
aS'label'
p71
asS'relu1'
p72
(lp73
S'ip1'
p74
asS'ip2'
p75
(lp76
S'ip1'
p77
asS'conv2'
p78
(lp79
S'pool1'
p80
asS'conv1'
p81
(lp82
S'data'
p83
asS'ip1'
p84
(lp85
S'pool2'
p86
asS'pool2'
p87
(lp88
S'conv2'
p89
asS'pool1'
p90
(lp91
S'conv1'
p92
asS'data'
p93
(lp94
sS'accuracy'
p95
(lp96
S'ip2'
p97
aS'label'
p98
assS'model_file'
p99
S'..\\Model\\lenet_train_test.prototxt'
p100
sS'layer_wt_shape'
p101
(dp102
S'ip2'
p103
(L10L
L500L
tp104
sS'conv2'
p105
(L50L
L20L
L5L
L5L
tp106
sS'conv1'
p107
(L20L
L1L
L5L
L5L
tp108
sS'ip1'
p109
(L500L
L800L
tp110
ssS'pad'
p111
(dp112
S'conv2'
p113
I0
sS'conv1'
p114
I0
sS'pool1'
p115
I0
sS'pool2'
p116
I0
ssS'data_layer'
p117
S'data'
p118
sS'gpu'
p119
I00
sS'num_wts'
p120
(dp121
sS'accuracy_layer'
p122
g37
sS'ip_layer'
p123
(lp124
g57
ag56
asS'lrn_size'
p125
(dp126
sS'act_rshift'
p127
(dp128
g56
I10
sg43
I12
sg42
I9
sg57
I9
ssS'wt_dec_bits'
p129
(dp130
g56
I8
sg43
I9
sg42
I7
sg57
I10
ssS'lrn_alpha'
p131
(dp132
sS'quant_weight_file'
p133
S'..\\Model\\quantized_lenet_iter_10000.caffemodel'
p134
sS'top_blob'
p135
(dp136
S'loss'
p137
(lp138
S'loss'
p139
asg52
(lp140
S'ip1'
p141
asg32
(lp142
S'ip2'
p143
asg33
(lp144
S'conv2'
p145
asg34
(lp146
S'conv1'
p147
asg35
(lp148
S'ip1'
p149
asg51
(lp150
S'pool2'
p151
asg50
(lp152
S'pool1'
p153
asg36
(lp154
S'data'
p155
aS'label'
p156
asS'accuracy'
p157
(lp158
S'accuracy'
p159
assS'bias_int_bits'
p160
(dp161
g56
I-4
sg43
I-3
sg42
I-1
sg57
I-5
ssS'bias_dec_bits'
p162
(dp163
g56
I11
sg43
I10
sg42
I8
sg57
I12
ssS'start_layer'
p164
(lp165
S''
p166
ag34
ag50
ag51
ag52
ag37
asS'pool_type'
p167
(dp168
S'pool2'
p169
I0
sS'pool1'
p170
I0
ssS'stride'
p171
(dp172
S'conv2'
p173
I1
sS'conv1'
p174
I1
sS'pool1'
p175
I2
sS'pool2'
p176
I2
ssS'layer_shape'
p177
(dp178
S'loss'
p179
(tsS'relu1'
p180
(L100L
L500L
tp181
sS'ip2'
p182
(L100L
L10L
tp183
sS'conv2'
p184
(L100L
L50L
L8L
L8L
tp185
sS'conv1'
p186
(L100L
L20L
L24L
L24L
tp187
sS'ip1'
p188
(L100L
L500L
tp189
sS'pool2'
p190
(L100L
L50L
L4L
L4L
tp191
sS'pool1'
p192
(L100L
L20L
L12L
L12L
tp193
sS'data'
p194
(L100L
L1L
L28L
L28L
tp195
sS'accuracy'
p196
(tssS'num_ops'
p197
(dp198
sS'wt_int_bits'
p199
(dp200
g56
I-1
sg43
I-2
sg42
I0
sg57
I-3
ssS'kernel_size'
p201
(dp202
S'conv2'
p203
I5
sS'conv1'
p204
I5
sS'pool1'
p205
I2
sS'pool2'
p206
I2
ssb.